
;CodeVisionAVR C Compiler V2.05.0 Advanced
;(C) Copyright 1998-2010 Pavel Haiduc, HP InfoTech s.r.l.
;http://www.hpinfotech.com

;Chip type                : ATmega328P
;Program type             : Application
;Clock frequency          : 1,000000 MHz
;Memory model             : Small
;Optimize for             : Size
;(s)printf features       : int, width
;(s)scanf features        : int, width
;External RAM size        : 0
;Data Stack size          : 512 byte(s)
;Heap size                : 0 byte(s)
;Promote 'char' to 'int'  : Yes
;'char' is unsigned       : Yes
;8 bit enums              : Yes
;global 'const' stored in FLASH: No
;Enhanced core instructions    : On
;Smart register allocation     : On
;Automatic register allocation : On

	#pragma AVRPART ADMIN PART_NAME ATmega328P
	#pragma AVRPART MEMORY PROG_FLASH 32768
	#pragma AVRPART MEMORY EEPROM 1024
	#pragma AVRPART MEMORY INT_SRAM SIZE 2303
	#pragma AVRPART MEMORY INT_SRAM START_ADDR 0x100

	#define CALL_SUPPORTED 1

	.LISTMAC
	.EQU EERE=0x0
	.EQU EEWE=0x1
	.EQU EEMWE=0x2
	.EQU UDRE=0x5
	.EQU RXC=0x7
	.EQU EECR=0x1F
	.EQU EEDR=0x20
	.EQU EEARL=0x21
	.EQU EEARH=0x22
	.EQU SPSR=0x2D
	.EQU SPDR=0x2E
	.EQU SMCR=0x33
	.EQU MCUSR=0x34
	.EQU MCUCR=0x35
	.EQU WDTCSR=0x60
	.EQU UCSR0A=0xC0
	.EQU UDR0=0xC6
	.EQU SPL=0x3D
	.EQU SPH=0x3E
	.EQU SREG=0x3F
	.EQU GPIOR0=0x1E

	.DEF R0X0=R0
	.DEF R0X1=R1
	.DEF R0X2=R2
	.DEF R0X3=R3
	.DEF R0X4=R4
	.DEF R0X5=R5
	.DEF R0X6=R6
	.DEF R0X7=R7
	.DEF R0X8=R8
	.DEF R0X9=R9
	.DEF R0XA=R10
	.DEF R0XB=R11
	.DEF R0XC=R12
	.DEF R0XD=R13
	.DEF R0XE=R14
	.DEF R0XF=R15
	.DEF R0X10=R16
	.DEF R0X11=R17
	.DEF R0X12=R18
	.DEF R0X13=R19
	.DEF R0X14=R20
	.DEF R0X15=R21
	.DEF R0X16=R22
	.DEF R0X17=R23
	.DEF R0X18=R24
	.DEF R0X19=R25
	.DEF R0X1A=R26
	.DEF R0X1B=R27
	.DEF R0X1C=R28
	.DEF R0X1D=R29
	.DEF R0X1E=R30
	.DEF R0X1F=R31

	.EQU __SRAM_START=0x0100
	.EQU __SRAM_END=0x08FF
	.EQU __DSTACK_SIZE=0x0200
	.EQU __HEAP_SIZE=0x0000
	.EQU __CLEAR_SRAM_SIZE=__SRAM_END-__SRAM_START+1

	.MACRO __CPD1N
	CPI  R30,LOW(@0)
	LDI  R26,HIGH(@0)
	CPC  R31,R26
	LDI  R26,BYTE3(@0)
	CPC  R22,R26
	LDI  R26,BYTE4(@0)
	CPC  R23,R26
	.ENDM

	.MACRO __CPD2N
	CPI  R26,LOW(@0)
	LDI  R30,HIGH(@0)
	CPC  R27,R30
	LDI  R30,BYTE3(@0)
	CPC  R24,R30
	LDI  R30,BYTE4(@0)
	CPC  R25,R30
	.ENDM

	.MACRO __CPWRR
	CP   R@0,R@2
	CPC  R@1,R@3
	.ENDM

	.MACRO __CPWRN
	CPI  R@0,LOW(@2)
	LDI  R30,HIGH(@2)
	CPC  R@1,R30
	.ENDM

	.MACRO __ADDB1MN
	SUBI R30,LOW(-@0-(@1))
	.ENDM

	.MACRO __ADDB2MN
	SUBI R26,LOW(-@0-(@1))
	.ENDM

	.MACRO __ADDW1MN
	SUBI R30,LOW(-@0-(@1))
	SBCI R31,HIGH(-@0-(@1))
	.ENDM

	.MACRO __ADDW2MN
	SUBI R26,LOW(-@0-(@1))
	SBCI R27,HIGH(-@0-(@1))
	.ENDM

	.MACRO __ADDW1FN
	SUBI R30,LOW(-2*@0-(@1))
	SBCI R31,HIGH(-2*@0-(@1))
	.ENDM

	.MACRO __ADDD1FN
	SUBI R30,LOW(-2*@0-(@1))
	SBCI R31,HIGH(-2*@0-(@1))
	SBCI R22,BYTE3(-2*@0-(@1))
	.ENDM

	.MACRO __ADDD1N
	SUBI R30,LOW(-@0)
	SBCI R31,HIGH(-@0)
	SBCI R22,BYTE3(-@0)
	SBCI R23,BYTE4(-@0)
	.ENDM

	.MACRO __ADDD2N
	SUBI R26,LOW(-@0)
	SBCI R27,HIGH(-@0)
	SBCI R24,BYTE3(-@0)
	SBCI R25,BYTE4(-@0)
	.ENDM

	.MACRO __SUBD1N
	SUBI R30,LOW(@0)
	SBCI R31,HIGH(@0)
	SBCI R22,BYTE3(@0)
	SBCI R23,BYTE4(@0)
	.ENDM

	.MACRO __SUBD2N
	SUBI R26,LOW(@0)
	SBCI R27,HIGH(@0)
	SBCI R24,BYTE3(@0)
	SBCI R25,BYTE4(@0)
	.ENDM

	.MACRO __ANDBMNN
	LDS  R30,@0+(@1)
	ANDI R30,LOW(@2)
	STS  @0+(@1),R30
	.ENDM

	.MACRO __ANDWMNN
	LDS  R30,@0+(@1)
	ANDI R30,LOW(@2)
	STS  @0+(@1),R30
	LDS  R30,@0+(@1)+1
	ANDI R30,HIGH(@2)
	STS  @0+(@1)+1,R30
	.ENDM

	.MACRO __ANDD1N
	ANDI R30,LOW(@0)
	ANDI R31,HIGH(@0)
	ANDI R22,BYTE3(@0)
	ANDI R23,BYTE4(@0)
	.ENDM

	.MACRO __ANDD2N
	ANDI R26,LOW(@0)
	ANDI R27,HIGH(@0)
	ANDI R24,BYTE3(@0)
	ANDI R25,BYTE4(@0)
	.ENDM

	.MACRO __ORBMNN
	LDS  R30,@0+(@1)
	ORI  R30,LOW(@2)
	STS  @0+(@1),R30
	.ENDM

	.MACRO __ORWMNN
	LDS  R30,@0+(@1)
	ORI  R30,LOW(@2)
	STS  @0+(@1),R30
	LDS  R30,@0+(@1)+1
	ORI  R30,HIGH(@2)
	STS  @0+(@1)+1,R30
	.ENDM

	.MACRO __ORD1N
	ORI  R30,LOW(@0)
	ORI  R31,HIGH(@0)
	ORI  R22,BYTE3(@0)
	ORI  R23,BYTE4(@0)
	.ENDM

	.MACRO __ORD2N
	ORI  R26,LOW(@0)
	ORI  R27,HIGH(@0)
	ORI  R24,BYTE3(@0)
	ORI  R25,BYTE4(@0)
	.ENDM

	.MACRO __DELAY_USB
	LDI  R24,LOW(@0)
__DELAY_USB_LOOP:
	DEC  R24
	BRNE __DELAY_USB_LOOP
	.ENDM

	.MACRO __DELAY_USW
	LDI  R24,LOW(@0)
	LDI  R25,HIGH(@0)
__DELAY_USW_LOOP:
	SBIW R24,1
	BRNE __DELAY_USW_LOOP
	.ENDM

	.MACRO __GETD1S
	LDD  R30,Y+@0
	LDD  R31,Y+@0+1
	LDD  R22,Y+@0+2
	LDD  R23,Y+@0+3
	.ENDM

	.MACRO __GETD2S
	LDD  R26,Y+@0
	LDD  R27,Y+@0+1
	LDD  R24,Y+@0+2
	LDD  R25,Y+@0+3
	.ENDM

	.MACRO __PUTD1S
	STD  Y+@0,R30
	STD  Y+@0+1,R31
	STD  Y+@0+2,R22
	STD  Y+@0+3,R23
	.ENDM

	.MACRO __PUTD2S
	STD  Y+@0,R26
	STD  Y+@0+1,R27
	STD  Y+@0+2,R24
	STD  Y+@0+3,R25
	.ENDM

	.MACRO __PUTDZ2
	STD  Z+@0,R26
	STD  Z+@0+1,R27
	STD  Z+@0+2,R24
	STD  Z+@0+3,R25
	.ENDM

	.MACRO __CLRD1S
	STD  Y+@0,R30
	STD  Y+@0+1,R30
	STD  Y+@0+2,R30
	STD  Y+@0+3,R30
	.ENDM

	.MACRO __POINTB1MN
	LDI  R30,LOW(@0+(@1))
	.ENDM

	.MACRO __POINTW1MN
	LDI  R30,LOW(@0+(@1))
	LDI  R31,HIGH(@0+(@1))
	.ENDM

	.MACRO __POINTD1M
	LDI  R30,LOW(@0)
	LDI  R31,HIGH(@0)
	LDI  R22,BYTE3(@0)
	LDI  R23,BYTE4(@0)
	.ENDM

	.MACRO __POINTW1FN
	LDI  R30,LOW(2*@0+(@1))
	LDI  R31,HIGH(2*@0+(@1))
	.ENDM

	.MACRO __POINTD1FN
	LDI  R30,LOW(2*@0+(@1))
	LDI  R31,HIGH(2*@0+(@1))
	LDI  R22,BYTE3(2*@0+(@1))
	LDI  R23,BYTE4(2*@0+(@1))
	.ENDM

	.MACRO __POINTB2MN
	LDI  R26,LOW(@0+(@1))
	.ENDM

	.MACRO __POINTW2MN
	LDI  R26,LOW(@0+(@1))
	LDI  R27,HIGH(@0+(@1))
	.ENDM

	.MACRO __POINTBRM
	LDI  R@0,LOW(@1)
	.ENDM

	.MACRO __POINTWRM
	LDI  R@0,LOW(@2)
	LDI  R@1,HIGH(@2)
	.ENDM

	.MACRO __POINTBRMN
	LDI  R@0,LOW(@1+(@2))
	.ENDM

	.MACRO __POINTWRMN
	LDI  R@0,LOW(@2+(@3))
	LDI  R@1,HIGH(@2+(@3))
	.ENDM

	.MACRO __POINTWRFN
	LDI  R@0,LOW(@2*2+(@3))
	LDI  R@1,HIGH(@2*2+(@3))
	.ENDM

	.MACRO __GETD1N
	LDI  R30,LOW(@0)
	LDI  R31,HIGH(@0)
	LDI  R22,BYTE3(@0)
	LDI  R23,BYTE4(@0)
	.ENDM

	.MACRO __GETD2N
	LDI  R26,LOW(@0)
	LDI  R27,HIGH(@0)
	LDI  R24,BYTE3(@0)
	LDI  R25,BYTE4(@0)
	.ENDM

	.MACRO __GETB1MN
	LDS  R30,@0+(@1)
	.ENDM

	.MACRO __GETB1HMN
	LDS  R31,@0+(@1)
	.ENDM

	.MACRO __GETW1MN
	LDS  R30,@0+(@1)
	LDS  R31,@0+(@1)+1
	.ENDM

	.MACRO __GETD1MN
	LDS  R30,@0+(@1)
	LDS  R31,@0+(@1)+1
	LDS  R22,@0+(@1)+2
	LDS  R23,@0+(@1)+3
	.ENDM

	.MACRO __GETBRMN
	LDS  R@0,@1+(@2)
	.ENDM

	.MACRO __GETWRMN
	LDS  R@0,@2+(@3)
	LDS  R@1,@2+(@3)+1
	.ENDM

	.MACRO __GETWRZ
	LDD  R@0,Z+@2
	LDD  R@1,Z+@2+1
	.ENDM

	.MACRO __GETD2Z
	LDD  R26,Z+@0
	LDD  R27,Z+@0+1
	LDD  R24,Z+@0+2
	LDD  R25,Z+@0+3
	.ENDM

	.MACRO __GETB2MN
	LDS  R26,@0+(@1)
	.ENDM

	.MACRO __GETW2MN
	LDS  R26,@0+(@1)
	LDS  R27,@0+(@1)+1
	.ENDM

	.MACRO __GETD2MN
	LDS  R26,@0+(@1)
	LDS  R27,@0+(@1)+1
	LDS  R24,@0+(@1)+2
	LDS  R25,@0+(@1)+3
	.ENDM

	.MACRO __PUTB1MN
	STS  @0+(@1),R30
	.ENDM

	.MACRO __PUTW1MN
	STS  @0+(@1),R30
	STS  @0+(@1)+1,R31
	.ENDM

	.MACRO __PUTD1MN
	STS  @0+(@1),R30
	STS  @0+(@1)+1,R31
	STS  @0+(@1)+2,R22
	STS  @0+(@1)+3,R23
	.ENDM

	.MACRO __PUTB1EN
	LDI  R26,LOW(@0+(@1))
	LDI  R27,HIGH(@0+(@1))
	CALL __EEPROMWRB
	.ENDM

	.MACRO __PUTW1EN
	LDI  R26,LOW(@0+(@1))
	LDI  R27,HIGH(@0+(@1))
	CALL __EEPROMWRW
	.ENDM

	.MACRO __PUTD1EN
	LDI  R26,LOW(@0+(@1))
	LDI  R27,HIGH(@0+(@1))
	CALL __EEPROMWRD
	.ENDM

	.MACRO __PUTBR0MN
	STS  @0+(@1),R0
	.ENDM

	.MACRO __PUTBMRN
	STS  @0+(@1),R@2
	.ENDM

	.MACRO __PUTWMRN
	STS  @0+(@1),R@2
	STS  @0+(@1)+1,R@3
	.ENDM

	.MACRO __PUTBZR
	STD  Z+@1,R@0
	.ENDM

	.MACRO __PUTWZR
	STD  Z+@2,R@0
	STD  Z+@2+1,R@1
	.ENDM

	.MACRO __GETW1R
	MOV  R30,R@0
	MOV  R31,R@1
	.ENDM

	.MACRO __GETW2R
	MOV  R26,R@0
	MOV  R27,R@1
	.ENDM

	.MACRO __GETWRN
	LDI  R@0,LOW(@2)
	LDI  R@1,HIGH(@2)
	.ENDM

	.MACRO __PUTW1R
	MOV  R@0,R30
	MOV  R@1,R31
	.ENDM

	.MACRO __PUTW2R
	MOV  R@0,R26
	MOV  R@1,R27
	.ENDM

	.MACRO __ADDWRN
	SUBI R@0,LOW(-@2)
	SBCI R@1,HIGH(-@2)
	.ENDM

	.MACRO __ADDWRR
	ADD  R@0,R@2
	ADC  R@1,R@3
	.ENDM

	.MACRO __SUBWRN
	SUBI R@0,LOW(@2)
	SBCI R@1,HIGH(@2)
	.ENDM

	.MACRO __SUBWRR
	SUB  R@0,R@2
	SBC  R@1,R@3
	.ENDM

	.MACRO __ANDWRN
	ANDI R@0,LOW(@2)
	ANDI R@1,HIGH(@2)
	.ENDM

	.MACRO __ANDWRR
	AND  R@0,R@2
	AND  R@1,R@3
	.ENDM

	.MACRO __ORWRN
	ORI  R@0,LOW(@2)
	ORI  R@1,HIGH(@2)
	.ENDM

	.MACRO __ORWRR
	OR   R@0,R@2
	OR   R@1,R@3
	.ENDM

	.MACRO __EORWRR
	EOR  R@0,R@2
	EOR  R@1,R@3
	.ENDM

	.MACRO __GETWRS
	LDD  R@0,Y+@2
	LDD  R@1,Y+@2+1
	.ENDM

	.MACRO __PUTBSR
	STD  Y+@1,R@0
	.ENDM

	.MACRO __PUTWSR
	STD  Y+@2,R@0
	STD  Y+@2+1,R@1
	.ENDM

	.MACRO __MOVEWRR
	MOV  R@0,R@2
	MOV  R@1,R@3
	.ENDM

	.MACRO __INWR
	IN   R@0,@2
	IN   R@1,@2+1
	.ENDM

	.MACRO __OUTWR
	OUT  @2+1,R@1
	OUT  @2,R@0
	.ENDM

	.MACRO __CALL1MN
	LDS  R30,@0+(@1)
	LDS  R31,@0+(@1)+1
	ICALL
	.ENDM

	.MACRO __CALL1FN
	LDI  R30,LOW(2*@0+(@1))
	LDI  R31,HIGH(2*@0+(@1))
	CALL __GETW1PF
	ICALL
	.ENDM

	.MACRO __CALL2EN
	LDI  R26,LOW(@0+(@1))
	LDI  R27,HIGH(@0+(@1))
	CALL __EEPROMRDW
	ICALL
	.ENDM

	.MACRO __GETW1STACK
	IN   R26,SPL
	IN   R27,SPH
	ADIW R26,@0+1
	LD   R30,X+
	LD   R31,X
	.ENDM

	.MACRO __GETD1STACK
	IN   R26,SPL
	IN   R27,SPH
	ADIW R26,@0+1
	LD   R30,X+
	LD   R31,X+
	LD   R22,X
	.ENDM

	.MACRO __NBST
	BST  R@0,@1
	IN   R30,SREG
	LDI  R31,0x40
	EOR  R30,R31
	OUT  SREG,R30
	.ENDM


	.MACRO __PUTB1SN
	LDD  R26,Y+@0
	LDD  R27,Y+@0+1
	SUBI R26,LOW(-@1)
	SBCI R27,HIGH(-@1)
	ST   X,R30
	.ENDM

	.MACRO __PUTW1SN
	LDD  R26,Y+@0
	LDD  R27,Y+@0+1
	SUBI R26,LOW(-@1)
	SBCI R27,HIGH(-@1)
	ST   X+,R30
	ST   X,R31
	.ENDM

	.MACRO __PUTD1SN
	LDD  R26,Y+@0
	LDD  R27,Y+@0+1
	SUBI R26,LOW(-@1)
	SBCI R27,HIGH(-@1)
	CALL __PUTDP1
	.ENDM

	.MACRO __PUTB1SNS
	LDD  R26,Y+@0
	LDD  R27,Y+@0+1
	ADIW R26,@1
	ST   X,R30
	.ENDM

	.MACRO __PUTW1SNS
	LDD  R26,Y+@0
	LDD  R27,Y+@0+1
	ADIW R26,@1
	ST   X+,R30
	ST   X,R31
	.ENDM

	.MACRO __PUTD1SNS
	LDD  R26,Y+@0
	LDD  R27,Y+@0+1
	ADIW R26,@1
	CALL __PUTDP1
	.ENDM

	.MACRO __PUTB1PMN
	LDS  R26,@0
	LDS  R27,@0+1
	SUBI R26,LOW(-@1)
	SBCI R27,HIGH(-@1)
	ST   X,R30
	.ENDM

	.MACRO __PUTW1PMN
	LDS  R26,@0
	LDS  R27,@0+1
	SUBI R26,LOW(-@1)
	SBCI R27,HIGH(-@1)
	ST   X+,R30
	ST   X,R31
	.ENDM

	.MACRO __PUTD1PMN
	LDS  R26,@0
	LDS  R27,@0+1
	SUBI R26,LOW(-@1)
	SBCI R27,HIGH(-@1)
	CALL __PUTDP1
	.ENDM

	.MACRO __PUTB1PMNS
	LDS  R26,@0
	LDS  R27,@0+1
	ADIW R26,@1
	ST   X,R30
	.ENDM

	.MACRO __PUTW1PMNS
	LDS  R26,@0
	LDS  R27,@0+1
	ADIW R26,@1
	ST   X+,R30
	ST   X,R31
	.ENDM

	.MACRO __PUTD1PMNS
	LDS  R26,@0
	LDS  R27,@0+1
	ADIW R26,@1
	CALL __PUTDP1
	.ENDM

	.MACRO __PUTB1RN
	MOVW R26,R@0
	SUBI R26,LOW(-@1)
	SBCI R27,HIGH(-@1)
	ST   X,R30
	.ENDM

	.MACRO __PUTW1RN
	MOVW R26,R@0
	SUBI R26,LOW(-@1)
	SBCI R27,HIGH(-@1)
	ST   X+,R30
	ST   X,R31
	.ENDM

	.MACRO __PUTD1RN
	MOVW R26,R@0
	SUBI R26,LOW(-@1)
	SBCI R27,HIGH(-@1)
	CALL __PUTDP1
	.ENDM

	.MACRO __PUTB1RNS
	MOVW R26,R@0
	ADIW R26,@1
	ST   X,R30
	.ENDM

	.MACRO __PUTW1RNS
	MOVW R26,R@0
	ADIW R26,@1
	ST   X+,R30
	ST   X,R31
	.ENDM

	.MACRO __PUTD1RNS
	MOVW R26,R@0
	ADIW R26,@1
	CALL __PUTDP1
	.ENDM

	.MACRO __PUTB1RON
	MOV  R26,R@0
	MOV  R27,R@1
	SUBI R26,LOW(-@2)
	SBCI R27,HIGH(-@2)
	ST   X,R30
	.ENDM

	.MACRO __PUTW1RON
	MOV  R26,R@0
	MOV  R27,R@1
	SUBI R26,LOW(-@2)
	SBCI R27,HIGH(-@2)
	ST   X+,R30
	ST   X,R31
	.ENDM

	.MACRO __PUTD1RON
	MOV  R26,R@0
	MOV  R27,R@1
	SUBI R26,LOW(-@2)
	SBCI R27,HIGH(-@2)
	CALL __PUTDP1
	.ENDM

	.MACRO __PUTB1RONS
	MOV  R26,R@0
	MOV  R27,R@1
	ADIW R26,@2
	ST   X,R30
	.ENDM

	.MACRO __PUTW1RONS
	MOV  R26,R@0
	MOV  R27,R@1
	ADIW R26,@2
	ST   X+,R30
	ST   X,R31
	.ENDM

	.MACRO __PUTD1RONS
	MOV  R26,R@0
	MOV  R27,R@1
	ADIW R26,@2
	CALL __PUTDP1
	.ENDM


	.MACRO __GETB1SX
	MOVW R30,R28
	SUBI R30,LOW(-@0)
	SBCI R31,HIGH(-@0)
	LD   R30,Z
	.ENDM

	.MACRO __GETB1HSX
	MOVW R30,R28
	SUBI R30,LOW(-@0)
	SBCI R31,HIGH(-@0)
	LD   R31,Z
	.ENDM

	.MACRO __GETW1SX
	MOVW R30,R28
	SUBI R30,LOW(-@0)
	SBCI R31,HIGH(-@0)
	LD   R0,Z+
	LD   R31,Z
	MOV  R30,R0
	.ENDM

	.MACRO __GETD1SX
	MOVW R30,R28
	SUBI R30,LOW(-@0)
	SBCI R31,HIGH(-@0)
	LD   R0,Z+
	LD   R1,Z+
	LD   R22,Z+
	LD   R23,Z
	MOVW R30,R0
	.ENDM

	.MACRO __GETB2SX
	MOVW R26,R28
	SUBI R26,LOW(-@0)
	SBCI R27,HIGH(-@0)
	LD   R26,X
	.ENDM

	.MACRO __GETW2SX
	MOVW R26,R28
	SUBI R26,LOW(-@0)
	SBCI R27,HIGH(-@0)
	LD   R0,X+
	LD   R27,X
	MOV  R26,R0
	.ENDM

	.MACRO __GETD2SX
	MOVW R26,R28
	SUBI R26,LOW(-@0)
	SBCI R27,HIGH(-@0)
	LD   R0,X+
	LD   R1,X+
	LD   R24,X+
	LD   R25,X
	MOVW R26,R0
	.ENDM

	.MACRO __GETBRSX
	MOVW R30,R28
	SUBI R30,LOW(-@1)
	SBCI R31,HIGH(-@1)
	LD   R@0,Z
	.ENDM

	.MACRO __GETWRSX
	MOVW R30,R28
	SUBI R30,LOW(-@2)
	SBCI R31,HIGH(-@2)
	LD   R@0,Z+
	LD   R@1,Z
	.ENDM

	.MACRO __GETBRSX2
	MOVW R26,R28
	SUBI R26,LOW(-@1)
	SBCI R27,HIGH(-@1)
	LD   R@0,X
	.ENDM

	.MACRO __GETWRSX2
	MOVW R26,R28
	SUBI R26,LOW(-@2)
	SBCI R27,HIGH(-@2)
	LD   R@0,X+
	LD   R@1,X
	.ENDM

	.MACRO __LSLW8SX
	MOVW R30,R28
	SUBI R30,LOW(-@0)
	SBCI R31,HIGH(-@0)
	LD   R31,Z
	CLR  R30
	.ENDM

	.MACRO __PUTB1SX
	MOVW R26,R28
	SUBI R26,LOW(-@0)
	SBCI R27,HIGH(-@0)
	ST   X,R30
	.ENDM

	.MACRO __PUTW1SX
	MOVW R26,R28
	SUBI R26,LOW(-@0)
	SBCI R27,HIGH(-@0)
	ST   X+,R30
	ST   X,R31
	.ENDM

	.MACRO __PUTD1SX
	MOVW R26,R28
	SUBI R26,LOW(-@0)
	SBCI R27,HIGH(-@0)
	ST   X+,R30
	ST   X+,R31
	ST   X+,R22
	ST   X,R23
	.ENDM

	.MACRO __CLRW1SX
	MOVW R26,R28
	SUBI R26,LOW(-@0)
	SBCI R27,HIGH(-@0)
	ST   X+,R30
	ST   X,R30
	.ENDM

	.MACRO __CLRD1SX
	MOVW R26,R28
	SUBI R26,LOW(-@0)
	SBCI R27,HIGH(-@0)
	ST   X+,R30
	ST   X+,R30
	ST   X+,R30
	ST   X,R30
	.ENDM

	.MACRO __PUTB2SX
	MOVW R30,R28
	SUBI R30,LOW(-@0)
	SBCI R31,HIGH(-@0)
	ST   Z,R26
	.ENDM

	.MACRO __PUTW2SX
	MOVW R30,R28
	SUBI R30,LOW(-@0)
	SBCI R31,HIGH(-@0)
	ST   Z+,R26
	ST   Z,R27
	.ENDM

	.MACRO __PUTD2SX
	MOVW R30,R28
	SUBI R30,LOW(-@0)
	SBCI R31,HIGH(-@0)
	ST   Z+,R26
	ST   Z+,R27
	ST   Z+,R24
	ST   Z,R25
	.ENDM

	.MACRO __PUTBSRX
	MOVW R30,R28
	SUBI R30,LOW(-@1)
	SBCI R31,HIGH(-@1)
	ST   Z,R@0
	.ENDM

	.MACRO __PUTWSRX
	MOVW R30,R28
	SUBI R30,LOW(-@2)
	SBCI R31,HIGH(-@2)
	ST   Z+,R@0
	ST   Z,R@1
	.ENDM

	.MACRO __PUTB1SNX
	MOVW R26,R28
	SUBI R26,LOW(-@0)
	SBCI R27,HIGH(-@0)
	LD   R0,X+
	LD   R27,X
	MOV  R26,R0
	SUBI R26,LOW(-@1)
	SBCI R27,HIGH(-@1)
	ST   X,R30
	.ENDM

	.MACRO __PUTW1SNX
	MOVW R26,R28
	SUBI R26,LOW(-@0)
	SBCI R27,HIGH(-@0)
	LD   R0,X+
	LD   R27,X
	MOV  R26,R0
	SUBI R26,LOW(-@1)
	SBCI R27,HIGH(-@1)
	ST   X+,R30
	ST   X,R31
	.ENDM

	.MACRO __PUTD1SNX
	MOVW R26,R28
	SUBI R26,LOW(-@0)
	SBCI R27,HIGH(-@0)
	LD   R0,X+
	LD   R27,X
	MOV  R26,R0
	SUBI R26,LOW(-@1)
	SBCI R27,HIGH(-@1)
	ST   X+,R30
	ST   X+,R31
	ST   X+,R22
	ST   X,R23
	.ENDM

	.MACRO __MULBRR
	MULS R@0,R@1
	MOVW R30,R0
	.ENDM

	.MACRO __MULBRRU
	MUL  R@0,R@1
	MOVW R30,R0
	.ENDM

	.MACRO __MULBRR0
	MULS R@0,R@1
	.ENDM

	.MACRO __MULBRRU0
	MUL  R@0,R@1
	.ENDM

	.MACRO __MULBNWRU
	LDI  R26,@2
	MUL  R26,R@0
	MOVW R30,R0
	MUL  R26,R@1
	ADD  R31,R0
	.ENDM

;NAME DEFINITIONS FOR GLOBAL VARIABLES ALLOCATED TO REGISTERS
	.DEF __lcd_x=R4
	.DEF __lcd_y=R3
	.DEF __lcd_maxx=R6

;GPIOR0 INITIALIZATION VALUE
	.EQU __GPIOR0_INIT=0x00

	.CSEG
	.ORG 0x00

;START OF CODE MARKER
__START_OF_CODE:

;INTERRUPT VECTORS
	JMP  __RESET
	JMP  0x00
	JMP  0x00
	JMP  0x00
	JMP  0x00
	JMP  0x00
	JMP  0x00
	JMP  0x00
	JMP  0x00
	JMP  0x00
	JMP  0x00
	JMP  0x00
	JMP  0x00
	JMP  0x00
	JMP  0x00
	JMP  0x00
	JMP  0x00
	JMP  0x00
	JMP  0x00
	JMP  0x00
	JMP  0x00
	JMP  0x00
	JMP  0x00
	JMP  0x00
	JMP  0x00
	JMP  0x00

_0x2000003:
	.DB  0x80,0xC0

__GLOBAL_INI_TBL:
	.DW  0x02
	.DW  __base_y_G100
	.DW  _0x2000003*2

_0xFFFFFFFF:
	.DW  0

__RESET:
	CLI
	CLR  R30
	OUT  EECR,R30

;INTERRUPT VECTORS ARE PLACED
;AT THE START OF FLASH
	LDI  R31,1
	OUT  MCUCR,R31
	OUT  MCUCR,R30

;DISABLE WATCHDOG
	LDI  R31,0x18
	WDR
	IN   R26,MCUSR
	CBR  R26,8
	OUT  MCUSR,R26
	STS  WDTCSR,R31
	STS  WDTCSR,R30

;CLEAR R2-R14
	LDI  R24,(14-2)+1
	LDI  R26,2
	CLR  R27
__CLEAR_REG:
	ST   X+,R30
	DEC  R24
	BRNE __CLEAR_REG

;CLEAR SRAM
	LDI  R24,LOW(__CLEAR_SRAM_SIZE)
	LDI  R25,HIGH(__CLEAR_SRAM_SIZE)
	LDI  R26,LOW(__SRAM_START)
	LDI  R27,HIGH(__SRAM_START)
__CLEAR_SRAM:
	ST   X+,R30
	SBIW R24,1
	BRNE __CLEAR_SRAM

;GLOBAL VARIABLES INITIALIZATION
	LDI  R30,LOW(__GLOBAL_INI_TBL*2)
	LDI  R31,HIGH(__GLOBAL_INI_TBL*2)
__GLOBAL_INI_NEXT:
	LPM  R24,Z+
	LPM  R25,Z+
	SBIW R24,0
	BREQ __GLOBAL_INI_END
	LPM  R26,Z+
	LPM  R27,Z+
	LPM  R0,Z+
	LPM  R1,Z+
	MOVW R22,R30
	MOVW R30,R0
__GLOBAL_INI_LOOP:
	LPM  R0,Z+
	ST   X+,R0
	SBIW R24,1
	BRNE __GLOBAL_INI_LOOP
	MOVW R30,R22
	RJMP __GLOBAL_INI_NEXT
__GLOBAL_INI_END:

;GPIOR0 INITIALIZATION
	LDI  R30,__GPIOR0_INIT
	OUT  GPIOR0,R30

;HARDWARE STACK POINTER INITIALIZATION
	LDI  R30,LOW(__SRAM_END-__HEAP_SIZE)
	OUT  SPL,R30
	LDI  R30,HIGH(__SRAM_END-__HEAP_SIZE)
	OUT  SPH,R30

;DATA STACK POINTER INITIALIZATION
	LDI  R28,LOW(__SRAM_START+__DSTACK_SIZE)
	LDI  R29,HIGH(__SRAM_START+__DSTACK_SIZE)

	JMP  _main

	.ESEG
	.ORG 0

	.DSEG
	.ORG 0x300

	.CSEG
;#include <mega328p.h>
	#ifndef __SLEEP_DEFINED__
	#define __SLEEP_DEFINED__
	.EQU __se_bit=0x01
	.EQU __sm_mask=0x0E
	.EQU __sm_adc_noise_red=0x02
	.EQU __sm_powerdown=0x04
	.EQU __sm_powersave=0x06
	.EQU __sm_standby=0x0C
	.EQU __sm_ext_standby=0x0E
	.SET power_ctrl_reg=smcr
	#endif
;#include <delay.h>
;#include <alcd.h>
;
;#define openBtn 1023
;#define closeBtn 713
;#define leftBtn 539
;#define rightBtn 394
;#define upBtn 269
;#define downBtn 146
;
;#define ADC_VREF_TYPE 0x40
;unsigned int read_adc(unsigned char adc_input)
; 0000 000E {

	.CSEG
_read_adc:
; 0000 000F ADMUX=adc_input | (ADC_VREF_TYPE & 0xff);
;	adc_input -> Y+0
	LD   R30,Y
	ORI  R30,0x40
	STS  124,R30
; 0000 0010 // Delay needed for the stabilization of the ADC input voltage
; 0000 0011 delay_us(10);
	__DELAY_USB 3
; 0000 0012 // Start the AD conversion
; 0000 0013 ADCSRA|=0x40;
	LDS  R30,122
	ORI  R30,0x40
	STS  122,R30
; 0000 0014 // Wait for the AD conversion to complete
; 0000 0015 while ((ADCSRA & 0x10)==0);
_0x3:
	LDS  R30,122
	ANDI R30,LOW(0x10)
	BREQ _0x3
; 0000 0016 ADCSRA|=0x10;
	LDS  R30,122
	ORI  R30,0x10
	STS  122,R30
; 0000 0017 return ADCW;
	LDS  R30,120
	LDS  R31,120+1
	RJMP _0x2020001
; 0000 0018 }
;
;void hienThi(unsigned int thamSo)
; 0000 001B {
_hienThi:
; 0000 001C     unsigned char ngan, tram, chuc, donVi;
; 0000 001D     ngan = thamSo/1000;
	CALL __SAVELOCR4
;	thamSo -> Y+4
;	ngan -> R17
;	tram -> R16
;	chuc -> R19
;	donVi -> R18
	LDD  R26,Y+4
	LDD  R27,Y+4+1
	LDI  R30,LOW(1000)
	LDI  R31,HIGH(1000)
	CALL __DIVW21U
	MOV  R17,R30
; 0000 001E     tram = thamSo/100%10;
	LDD  R26,Y+4
	LDD  R27,Y+4+1
	LDI  R30,LOW(100)
	LDI  R31,HIGH(100)
	RCALL SUBOPT_0x0
	MOV  R16,R30
; 0000 001F     chuc = thamSo/10%10;
	LDD  R26,Y+4
	LDD  R27,Y+4+1
	LDI  R30,LOW(10)
	LDI  R31,HIGH(10)
	RCALL SUBOPT_0x0
	MOV  R19,R30
; 0000 0020     donVi = thamSo%10;
	LDD  R26,Y+4
	LDD  R27,Y+4+1
	LDI  R30,LOW(10)
	LDI  R31,HIGH(10)
	CALL __MODW21U
	MOV  R18,R30
; 0000 0021     lcd_putchar(ngan + 48);
	MOV  R30,R17
	RCALL SUBOPT_0x1
; 0000 0022     lcd_putchar(tram + 48);
	MOV  R30,R16
	RCALL SUBOPT_0x1
; 0000 0023     lcd_putchar(chuc + 48);
	MOV  R30,R19
	RCALL SUBOPT_0x1
; 0000 0024     lcd_putchar(donVi + 48);
	MOV  R30,R18
	RCALL SUBOPT_0x1
; 0000 0025 }
	CALL __LOADLOCR4
	ADIW R28,6
	RET
;
;void main(void)
; 0000 0028 {
_main:
; 0000 0029 unsigned int curBtn;
; 0000 002A 
; 0000 002B // Crystal Oscillator division factor: 1
; 0000 002C #pragma optsize-
; 0000 002D CLKPR=0x80;
;	curBtn -> R16,R17
	LDI  R30,LOW(128)
	STS  97,R30
; 0000 002E CLKPR=0x00;
	LDI  R30,LOW(0)
	STS  97,R30
; 0000 002F #ifdef _OPTIMIZE_SIZE_
; 0000 0030 #pragma optsize+
; 0000 0031 #endif
; 0000 0032 
; 0000 0033 // Timer/Counter 0 initialization
; 0000 0034 TCCR0A=0x00;
	OUT  0x24,R30
; 0000 0035 TCCR0B=0x00;
	OUT  0x25,R30
; 0000 0036 TCNT0=0x00;
	OUT  0x26,R30
; 0000 0037 OCR0A=0x00;
	OUT  0x27,R30
; 0000 0038 OCR0B=0x00;
	OUT  0x28,R30
; 0000 0039 
; 0000 003A // Timer/Counter 1 initialization
; 0000 003B TCCR1A=0x00;
	STS  128,R30
; 0000 003C TCCR1B=0x00;
	STS  129,R30
; 0000 003D TCNT1H=0x00;
	STS  133,R30
; 0000 003E TCNT1L=0x00;
	STS  132,R30
; 0000 003F ICR1H=0x00;
	STS  135,R30
; 0000 0040 ICR1L=0x00;
	STS  134,R30
; 0000 0041 OCR1AH=0x00;
	STS  137,R30
; 0000 0042 OCR1AL=0x00;
	STS  136,R30
; 0000 0043 OCR1BH=0x00;
	STS  139,R30
; 0000 0044 OCR1BL=0x00;
	STS  138,R30
; 0000 0045 
; 0000 0046 // Timer/Counter 0 Interrupt(s) initialization
; 0000 0047 TIMSK0=0x00;
	STS  110,R30
; 0000 0048 
; 0000 0049 // Timer/Counter 1 Interrupt(s) initialization
; 0000 004A TIMSK1=0x00;
	STS  111,R30
; 0000 004B 
; 0000 004C // ADC initialization
; 0000 004D // ADC Clock frequency: 500,000 kHz
; 0000 004E // ADC Voltage Reference: AVCC pin
; 0000 004F // ADC Auto Trigger Source: ADC Stopped
; 0000 0050 // Digital input buffers on ADC0: On, ADC1: On, ADC2: On, ADC3: On
; 0000 0051 // ADC4: On, ADC5: Off
; 0000 0052 DIDR0=0x20;
	LDI  R30,LOW(32)
	STS  126,R30
; 0000 0053 ADMUX=ADC_VREF_TYPE & 0xff;
	LDI  R30,LOW(64)
	STS  124,R30
; 0000 0054 ADCSRA=0x81;
	LDI  R30,LOW(129)
	STS  122,R30
; 0000 0055 
; 0000 0056 // Characters/line: 16
; 0000 0057 lcd_init(16);
	LDI  R30,LOW(16)
	ST   -Y,R30
	RCALL _lcd_init
; 0000 0058 
; 0000 0059 #asm("sei")
	sei
; 0000 005A 
; 0000 005B while (1)
_0x6:
; 0000 005C       {
; 0000 005D         curBtn = read_adc(5);
	LDI  R30,LOW(5)
	ST   -Y,R30
	RCALL _read_adc
	MOVW R16,R30
; 0000 005E         lcd_clear();
	RCALL _lcd_clear
; 0000 005F         lcd_gotoxy(0,0);
	LDI  R30,LOW(0)
	ST   -Y,R30
	ST   -Y,R30
	RCALL _lcd_gotoxy
; 0000 0060         hienThi(curBtn);
	ST   -Y,R17
	ST   -Y,R16
	RCALL _hienThi
; 0000 0061         delay_ms(300);
	LDI  R30,LOW(300)
	LDI  R31,HIGH(300)
	RCALL SUBOPT_0x2
; 0000 0062       }
	RJMP _0x6
; 0000 0063 }
_0x9:
	RJMP _0x9
	#ifndef __SLEEP_DEFINED__
	#define __SLEEP_DEFINED__
	.EQU __se_bit=0x01
	.EQU __sm_mask=0x0E
	.EQU __sm_adc_noise_red=0x02
	.EQU __sm_powerdown=0x04
	.EQU __sm_powersave=0x06
	.EQU __sm_standby=0x0C
	.EQU __sm_ext_standby=0x0E
	.SET power_ctrl_reg=smcr
	#endif

	.DSEG

	.CSEG
__lcd_write_nibble_G100:
	LD   R30,Y
	ANDI R30,LOW(0x10)
	BREQ _0x2000004
	SBI  0x5,6
	RJMP _0x2000005
_0x2000004:
	CBI  0x5,6
_0x2000005:
	LD   R30,Y
	ANDI R30,LOW(0x20)
	BREQ _0x2000006
	SBI  0x5,7
	RJMP _0x2000007
_0x2000006:
	CBI  0x5,7
_0x2000007:
	LD   R30,Y
	ANDI R30,LOW(0x40)
	BREQ _0x2000008
	SBI  0xB,6
	RJMP _0x2000009
_0x2000008:
	CBI  0xB,6
_0x2000009:
	LD   R30,Y
	ANDI R30,LOW(0x80)
	BREQ _0x200000A
	SBI  0xB,7
	RJMP _0x200000B
_0x200000A:
	CBI  0xB,7
_0x200000B:
	__DELAY_USB 1
	SBI  0x5,5
	__DELAY_USB 2
	CBI  0x5,5
	__DELAY_USB 2
	RJMP _0x2020001
__lcd_write_data:
	LD   R30,Y
	ST   -Y,R30
	RCALL __lcd_write_nibble_G100
    ld    r30,y
    swap  r30
    st    y,r30
	LD   R30,Y
	ST   -Y,R30
	RCALL __lcd_write_nibble_G100
	__DELAY_USB 17
	RJMP _0x2020001
_lcd_gotoxy:
	LD   R30,Y
	LDI  R31,0
	SUBI R30,LOW(-__base_y_G100)
	SBCI R31,HIGH(-__base_y_G100)
	LD   R30,Z
	LDD  R26,Y+1
	ADD  R30,R26
	ST   -Y,R30
	RCALL __lcd_write_data
	LDD  R4,Y+1
	LDD  R3,Y+0
	ADIW R28,2
	RET
_lcd_clear:
	LDI  R30,LOW(2)
	RCALL SUBOPT_0x3
	LDI  R30,LOW(12)
	ST   -Y,R30
	RCALL __lcd_write_data
	LDI  R30,LOW(1)
	RCALL SUBOPT_0x3
	LDI  R30,LOW(0)
	MOV  R3,R30
	MOV  R4,R30
	RET
_lcd_putchar:
	LD   R26,Y
	CPI  R26,LOW(0xA)
	BREQ _0x2000011
	CP   R4,R6
	BRLO _0x2000010
_0x2000011:
	LDI  R30,LOW(0)
	ST   -Y,R30
	INC  R3
	ST   -Y,R3
	RCALL _lcd_gotoxy
	LD   R26,Y
	CPI  R26,LOW(0xA)
	BREQ _0x2020001
_0x2000010:
	INC  R4
	SBI  0x5,3
	LD   R30,Y
	ST   -Y,R30
	RCALL __lcd_write_data
	CBI  0x5,3
	RJMP _0x2020001
_lcd_init:
	SBI  0x4,6
	SBI  0x4,7
	SBI  0xA,6
	SBI  0xA,7
	SBI  0x4,5
	SBI  0x4,3
	SBI  0x4,4
	CBI  0x5,5
	CBI  0x5,3
	CBI  0x5,4
	LDD  R6,Y+0
	LD   R30,Y
	SUBI R30,-LOW(128)
	__PUTB1MN __base_y_G100,2
	LD   R30,Y
	SUBI R30,-LOW(192)
	__PUTB1MN __base_y_G100,3
	LDI  R30,LOW(20)
	LDI  R31,HIGH(20)
	RCALL SUBOPT_0x2
	RCALL SUBOPT_0x4
	RCALL SUBOPT_0x4
	RCALL SUBOPT_0x4
	LDI  R30,LOW(32)
	ST   -Y,R30
	RCALL __lcd_write_nibble_G100
	__DELAY_USB 33
	LDI  R30,LOW(40)
	ST   -Y,R30
	RCALL __lcd_write_data
	LDI  R30,LOW(4)
	ST   -Y,R30
	RCALL __lcd_write_data
	LDI  R30,LOW(133)
	ST   -Y,R30
	RCALL __lcd_write_data
	LDI  R30,LOW(6)
	ST   -Y,R30
	RCALL __lcd_write_data
	RCALL _lcd_clear
_0x2020001:
	ADIW R28,1
	RET

	.DSEG
__base_y_G100:
	.BYTE 0x4

	.CSEG
;OPTIMIZER ADDED SUBROUTINE, CALLED 2 TIMES, CODE SIZE REDUCTION:2 WORDS
SUBOPT_0x0:
	CALL __DIVW21U
	MOVW R26,R30
	LDI  R30,LOW(10)
	LDI  R31,HIGH(10)
	CALL __MODW21U
	RET

;OPTIMIZER ADDED SUBROUTINE, CALLED 4 TIMES, CODE SIZE REDUCTION:3 WORDS
SUBOPT_0x1:
	SUBI R30,-LOW(48)
	ST   -Y,R30
	RJMP _lcd_putchar

;OPTIMIZER ADDED SUBROUTINE, CALLED 4 TIMES, CODE SIZE REDUCTION:3 WORDS
SUBOPT_0x2:
	ST   -Y,R31
	ST   -Y,R30
	JMP  _delay_ms

;OPTIMIZER ADDED SUBROUTINE, CALLED 2 TIMES, CODE SIZE REDUCTION:2 WORDS
SUBOPT_0x3:
	ST   -Y,R30
	RCALL __lcd_write_data
	LDI  R30,LOW(3)
	LDI  R31,HIGH(3)
	RJMP SUBOPT_0x2

;OPTIMIZER ADDED SUBROUTINE, CALLED 3 TIMES, CODE SIZE REDUCTION:7 WORDS
SUBOPT_0x4:
	LDI  R30,LOW(48)
	ST   -Y,R30
	RCALL __lcd_write_nibble_G100
	__DELAY_USB 33
	RET


	.CSEG
_delay_ms:
	ld   r30,y+
	ld   r31,y+
	adiw r30,0
	breq __delay_ms1
__delay_ms0:
	__DELAY_USW 0xFA
	wdr
	sbiw r30,1
	brne __delay_ms0
__delay_ms1:
	ret

__DIVW21U:
	CLR  R0
	CLR  R1
	LDI  R25,16
__DIVW21U1:
	LSL  R26
	ROL  R27
	ROL  R0
	ROL  R1
	SUB  R0,R30
	SBC  R1,R31
	BRCC __DIVW21U2
	ADD  R0,R30
	ADC  R1,R31
	RJMP __DIVW21U3
__DIVW21U2:
	SBR  R26,1
__DIVW21U3:
	DEC  R25
	BRNE __DIVW21U1
	MOVW R30,R26
	MOVW R26,R0
	RET

__MODW21U:
	RCALL __DIVW21U
	MOVW R30,R26
	RET

__SAVELOCR4:
	ST   -Y,R19
__SAVELOCR3:
	ST   -Y,R18
__SAVELOCR2:
	ST   -Y,R17
	ST   -Y,R16
	RET

__LOADLOCR4:
	LDD  R19,Y+3
__LOADLOCR3:
	LDD  R18,Y+2
__LOADLOCR2:
	LDD  R17,Y+1
	LD   R16,Y
	RET

;END OF CODE MARKER
__END_OF_CODE:
